target datalayout = "e-m:e-p270:32:32-p271:32:32-p272:64:64-i64:64-i128:128-f80:128-n8:16:32:64-S128"
target triple = "x86_64-pc-linux-gnu"

%"class.clang::comments::Sema" = type { ptr, ptr, ptr, ptr, ptr, ptr, %"class.llvm::StringMap", ptr, ptr, %"class.llvm::SmallVector" }
%"class.llvm::StringMap" = type { %"class.llvm::StringMapImpl" }
%"class.llvm::StringMapImpl" = type { ptr, i32, i32, i32, i32 }
%"class.llvm::SmallVector" = type { %"class.llvm::SmallVectorImpl", %"struct.llvm::SmallVectorStorage" }
%"class.llvm::SmallVectorImpl" = type { %"class.llvm::SmallVectorTemplateBase" }
%"class.llvm::SmallVectorTemplateBase" = type { %"class.llvm::SmallVectorTemplateCommon" }
%"class.llvm::SmallVectorTemplateCommon" = type { %"class.llvm::SmallVectorBase" }
%"class.llvm::SmallVectorBase" = type { ptr, i32, i32 }
%"struct.llvm::SmallVectorStorage" = type { [64 x i8] }
%"struct.clang::comments::DeclInfo" = type <{ ptr, ptr, %"class.llvm::ArrayRef", %"class.clang::QualType", ptr, i16, [6 x i8] }>
%"class.llvm::ArrayRef" = type { ptr, i64 }
%"class.clang::QualType" = type { %"class.llvm::PointerIntPair.118" }
%"class.llvm::PointerIntPair.118" = type { %"struct.llvm::detail::PunnedPointer.119" }
%"struct.llvm::detail::PunnedPointer.119" = type { [8 x i8] }

; Function Attrs: mustprogress nounwind uwtable
define dso_local void @_ZN5clang8comments4Sema15inspectThisDeclEv(ptr noundef nonnull align 8 dereferenceable(168) %0) #0 align 2 {
  %2 = alloca ptr, align 8
  store ptr %0, ptr %2, align 8
  %3 = load ptr, ptr %2, align 8
  %4 = getelementptr inbounds nuw %"class.clang::comments::Sema", ptr %3, i32 0, i32 5
  %5 = load ptr, ptr %4, align 8
  call void @_ZN5clang8comments8DeclInfo4fillEv(ptr noundef nonnull align 8 dereferenceable(50) %5)
  ret void
}

; Function Attrs: mustprogress nounwind uwtable
define dso_local noundef zeroext i1 @_ZN5clang8comments4Sema26isFunctionOrMethodVariadicEv(ptr noundef nonnull align 8 dereferenceable(168) %0) #0 align 2 {
  %2 = alloca i1, align 1
  %3 = alloca ptr, align 8
  store ptr %0, ptr %3, align 8
  %4 = load ptr, ptr %3, align 8
  %5 = getelementptr inbounds nuw %"class.clang::comments::Sema", ptr %4, i32 0, i32 5
  %6 = load ptr, ptr %5, align 8
  %7 = icmp ne ptr %6, null
  br i1 %7, label %9, label %8

8:                                                ; preds = %1
  store i1 false, ptr %2, align 1
  br label %27

9:                                                ; preds = %1
  %10 = getelementptr inbounds nuw %"class.clang::comments::Sema", ptr %4, i32 0, i32 5
  %11 = load ptr, ptr %10, align 8
  %12 = getelementptr inbounds nuw %"struct.clang::comments::DeclInfo", ptr %11, i32 0, i32 5
  %13 = load i16, ptr %12, align 8
  %14 = and i16 %13, 1
  %15 = zext i16 %14 to i32
  %16 = icmp ne i32 %15, 0
  br i1 %16, label %18, label %17

17:                                               ; preds = %9
  call void @_ZN5clang8comments4Sema15inspectThisDeclEv(ptr noundef nonnull align 8 dereferenceable(168) %4)
  br label %18

18:                                               ; preds = %17, %9
  %19 = getelementptr inbounds nuw %"class.clang::comments::Sema", ptr %4, i32 0, i32 5
  %20 = load ptr, ptr %19, align 8
  %21 = getelementptr inbounds nuw %"struct.clang::comments::DeclInfo", ptr %20, i32 0, i32 5
  %22 = load i16, ptr %21, align 8
  %23 = lshr i16 %22, 9
  %24 = and i16 %23, 1
  %25 = zext i16 %24 to i32
  %26 = icmp ne i32 %25, 0
  store i1 %26, ptr %2, align 1
  br label %27

27:                                               ; preds = %18, %8
  %28 = load i1, ptr %2, align 1
  ret i1 %28
}